target datalayout = "e-m:e-p270:32:32-p271:32:32-p272:64:64-i64:64-i128:128-f80:128-n8:16:32:64-S128"
target triple = "x86_64-pc-linux-gnu"

%struct._address = type { i32, i32, ptr, ptr }
%struct.conversation = type { ptr, ptr, ptr, i32, i32, i32, ptr, ptr, i32, ptr }
%struct.lbtrm_transport_t = type { %struct._address, i16, i32, %struct._address, i16, i64, ptr, ptr, ptr, ptr, ptr, ptr, ptr, ptr, i32, i32 }

@proto_lbtrm = internal global i32 0, align 4
@lbtrm_null_address = internal constant %struct._address zeroinitializer, align 8

; Function Attrs: inlinehint nounwind null_pointer_is_valid sspstrong uwtable
define internal void @clear_address(ptr noundef %0) #6 {
  %2 = alloca ptr, align 8
  store ptr %0, ptr %2, align 8
  %3 = load ptr, ptr %2, align 8
  %4 = getelementptr inbounds nuw %struct._address, ptr %3, i32 0, i32 0
  store i32 0, ptr %4, align 8
  %5 = load ptr, ptr %2, align 8
  %6 = getelementptr inbounds nuw %struct._address, ptr %5, i32 0, i32 1
  store i32 0, ptr %6, align 4
  %7 = load ptr, ptr %2, align 8
  %8 = getelementptr inbounds nuw %struct._address, ptr %7, i32 0, i32 2
  store ptr null, ptr %8, align 8
  %9 = load ptr, ptr %2, align 8
  %10 = getelementptr inbounds nuw %struct._address, ptr %9, i32 0, i32 3
  store ptr null, ptr %10, align 8
  ret void
}

; Function Attrs: inlinehint null_pointer_is_valid sspstrong uwtable
define internal void @alloc_address_wmem(ptr noundef %0, ptr noundef %1, i32 noundef %2, i32 noundef %3, ptr noundef %4) #4 {
  %6 = alloca ptr, align 8
  %7 = alloca ptr, align 8
  %8 = alloca i32, align 4
  %9 = alloca i32, align 4
  %10 = alloca ptr, align 8
  store ptr %0, ptr %6, align 8
  store ptr %1, ptr %7, align 8
  store i32 %2, ptr %8, align 4
  store i32 %3, ptr %9, align 4
  store ptr %4, ptr %10, align 8
  br label %11

11:                                               ; preds = %5
  br label %12

12:                                               ; preds = %11
  %13 = load ptr, ptr %7, align 8
  call void @clear_address(ptr noundef %13)
  %14 = load i32, ptr %8, align 4
  %15 = load ptr, ptr %7, align 8
  %16 = getelementptr inbounds nuw %struct._address, ptr %15, i32 0, i32 0
  store i32 %14, ptr %16, align 8
  %17 = load i32, ptr %9, align 4
  %18 = icmp eq i32 %17, 0
  br i1 %18, label %19, label %22

19:                                               ; preds = %12
  br label %20

20:                                               ; preds = %19
  br label %21

21:                                               ; preds = %20
  br label %39

22:                                               ; preds = %12
  br label %23

23:                                               ; preds = %22
  br label %24

24:                                               ; preds = %23
  br label %25

25:                                               ; preds = %24
  br label %26

26:                                               ; preds = %25
  %27 = load ptr, ptr %6, align 8
  %28 = load ptr, ptr %10, align 8
  %29 = load i32, ptr %9, align 4
  %30 = sext i32 %29 to i64
  %31 = call ptr @wmem_memdup(ptr noundef %27, ptr noundef %28, i64 noundef %30) #12
  %32 = load ptr, ptr %7, align 8
  %33 = getelementptr inbounds nuw %struct._address, ptr %32, i32 0, i32 3
  store ptr %31, ptr %33, align 8
  %34 = load ptr, ptr %7, align 8
  %35 = getelementptr inbounds nuw %struct._address, ptr %34, i32 0, i32 2
  store ptr %31, ptr %35, align 8
  %36 = load i32, ptr %9, align 4
  %37 = load ptr, ptr %7, align 8
  %38 = getelementptr inbounds nuw %struct._address, ptr %37, i32 0, i32 1
  store i32 %36, ptr %38, align 4
  br label %39

39:                                               ; preds = %26, %21
  ret void
}

; Function Attrs: null_pointer_is_valid sspstrong uwtable
define internal void @lbtrm_transport_unicast_add(ptr noundef %0, i16 noundef zeroext %1, i32 noundef %2, i32 noundef %3, ptr noundef %4) #0 {
  %6 = alloca ptr, align 8
  %7 = alloca i16, align 2
  %8 = alloca i32, align 4
  %9 = alloca i32, align 4
  %10 = alloca ptr, align 8
  %11 = alloca ptr, align 8
  %12 = alloca ptr, align 8
  %13 = alloca ptr, align 8
  store ptr %0, ptr %6, align 8
  store i16 %1, ptr %7, align 2
  store i32 %2, ptr %8, align 4
  store i32 %3, ptr %9, align 4
  store ptr %4, ptr %10, align 8
  call void @llvm.lifetime.start.p0(i64 8, ptr %11) #9
  store ptr null, ptr %11, align 8
  call void @llvm.lifetime.start.p0(i64 8, ptr %12) #9
  store ptr null, ptr %12, align 8
  call void @llvm.lifetime.start.p0(i64 8, ptr %13) #9
  store ptr null, ptr %13, align 8
  %14 = load i32, ptr %9, align 4
  %15 = load ptr, ptr %6, align 8
  %16 = load i16, ptr %7, align 2
  %17 = zext i16 %16 to i32
  %18 = call ptr @find_conversation(i32 noundef %14, ptr noundef %15, ptr noundef @lbtrm_null_address, i32 noundef 3, i32 noundef %17, i32 noundef 0, i32 noundef 0)
  store ptr %18, ptr %11, align 8
  %19 = load ptr, ptr %11, align 8
  %20 = icmp eq ptr %19, null
  br i1 %20, label %21, label %27

21:                                               ; preds = %5
  %22 = load i32, ptr %9, align 4
  %23 = load ptr, ptr %6, align 8
  %24 = load i16, ptr %7, align 2
  %25 = zext i16 %24 to i32
  %26 = call ptr @conversation_new(i32 noundef %22, ptr noundef %23, ptr noundef @lbtrm_null_address, i32 noundef 3, i32 noundef %25, i32 noundef 0, i32 noundef 0)
  store ptr %26, ptr %11, align 8
  br label %27

27:                                               ; preds = %21, %5
  %28 = load ptr, ptr %11, align 8
  %29 = load i32, ptr @proto_lbtrm, align 4
  %30 = call ptr @conversation_get_proto_data(ptr noundef %28, i32 noundef %29)
  store ptr %30, ptr %12, align 8
  %31 = load ptr, ptr %12, align 8
  %32 = icmp eq ptr %31, null
  br i1 %32, label %33, label %39

33:                                               ; preds = %27
  %34 = call ptr @wmem_file_scope()
  %35 = call noalias ptr @wmem_tree_new(ptr noundef %34)
  store ptr %35, ptr %12, align 8
  %36 = load ptr, ptr %11, align 8
  %37 = load i32, ptr @proto_lbtrm, align 4
  %38 = load ptr, ptr %12, align 8
  call void @conversation_add_proto_data(ptr noundef %36, i32 noundef %37, ptr noundef %38)
  br label %39

39:                                               ; preds = %33, %27
  %40 = load ptr, ptr %12, align 8
  %41 = load i32, ptr %8, align 4
  %42 = call ptr @wmem_tree_lookup32(ptr noundef %40, i32 noundef %41)
  store ptr %42, ptr %13, align 8
  %43 = load ptr, ptr %13, align 8
  %44 = icmp eq ptr %43, null
  br i1 %44, label %45, label %49

45:                                               ; preds = %39
  %46 = load ptr, ptr %12, align 8
  %47 = load i32, ptr %8, align 4
  %48 = load ptr, ptr %10, align 8
  call void @wmem_tree_insert32(ptr noundef %46, i32 noundef %47, ptr noundef %48)
  br label %49

49:                                               ; preds = %45, %39
  call void @llvm.lifetime.end.p0(i64 8, ptr %13) #9
  call void @llvm.lifetime.end.p0(i64 8, ptr %12) #9
  call void @llvm.lifetime.end.p0(i64 8, ptr %11) #9
  ret void
}

; Function Attrs: inlinehint null_pointer_is_valid sspstrong uwtable
define internal void @copy_address_wmem(ptr noundef %0, ptr noundef %1, ptr noundef %2) #4 {
  %4 = alloca ptr, align 8
  %5 = alloca ptr, align 8
  %6 = alloca ptr, align 8
  store ptr %0, ptr %4, align 8
  store ptr %1, ptr %5, align 8
  store ptr %2, ptr %6, align 8
  %7 = load ptr, ptr %4, align 8
  %8 = load ptr, ptr %5, align 8
  %9 = load ptr, ptr %6, align 8
  %10 = getelementptr inbounds nuw %struct._address, ptr %9, i32 0, i32 0
  %11 = load i32, ptr %10, align 8
  %12 = load ptr, ptr %6, align 8
  %13 = getelementptr inbounds nuw %struct._address, ptr %12, i32 0, i32 1
  %14 = load i32, ptr %13, align 4
  %15 = load ptr, ptr %6, align 8
  %16 = getelementptr inbounds nuw %struct._address, ptr %15, i32 0, i32 2
  %17 = load ptr, ptr %16, align 8
  call void @alloc_address_wmem(ptr noundef %7, ptr noundef %8, i32 noundef %11, i32 noundef %14, ptr noundef %17)
  ret void
}

; Function Attrs: null_pointer_is_valid sspstrong uwtable
define hidden ptr @lbtrm_transport_add(ptr noundef %0, i16 noundef zeroext %1, i32 noundef %2, ptr noundef %3, i16 noundef zeroext %4, i32 noundef %5) #0 {
  %7 = alloca ptr, align 8
  %8 = alloca ptr, align 8
  %9 = alloca i16, align 2
  %10 = alloca i32, align 4
  %11 = alloca ptr, align 8
  %12 = alloca i16, align 2
  %13 = alloca i32, align 4
  %14 = alloca ptr, align 8
  %15 = alloca ptr, align 8
  %16 = alloca ptr, align 8
  %17 = alloca i32, align 4
  store ptr %0, ptr %8, align 8
  store i16 %1, ptr %9, align 2
  store i32 %2, ptr %10, align 4
  store ptr %3, ptr %11, align 8
  store i16 %4, ptr %12, align 2
  store i32 %5, ptr %13, align 4
  call void @llvm.lifetime.start.p0(i64 8, ptr %14) #9
  call void @llvm.lifetime.start.p0(i64 8, ptr %15) #9
  store ptr null, ptr %15, align 8
  call void @llvm.lifetime.start.p0(i64 8, ptr %16) #9
  store ptr null, ptr %16, align 8
  %18 = load i32, ptr %13, align 4
  %19 = load ptr, ptr %8, align 8
  %20 = load ptr, ptr %11, align 8
  %21 = load i16, ptr %9, align 2
  %22 = zext i16 %21 to i32
  %23 = load i16, ptr %12, align 2
  %24 = zext i16 %23 to i32
  %25 = call ptr @find_conversation(i32 noundef %18, ptr noundef %19, ptr noundef %20, i32 noundef 3, i32 noundef %22, i32 noundef %24, i32 noundef 0)
  store ptr %25, ptr %15, align 8
  %26 = load ptr, ptr %15, align 8
  %27 = icmp eq ptr %26, null
  br i1 %27, label %28, label %37

28:                                               ; preds = %6
  %29 = load i32, ptr %13, align 4
  %30 = load ptr, ptr %8, align 8
  %31 = load ptr, ptr %11, align 8
  %32 = load i16, ptr %9, align 2
  %33 = zext i16 %32 to i32
  %34 = load i16, ptr %12, align 2
  %35 = zext i16 %34 to i32
  %36 = call ptr @conversation_new(i32 noundef %29, ptr noundef %30, ptr noundef %31, i32 noundef 3, i32 noundef %33, i32 noundef %35, i32 noundef 0)
  store ptr %36, ptr %15, align 8
  br label %37

37:                                               ; preds = %28, %6
  %38 = load i32, ptr %13, align 4
  %39 = load ptr, ptr %15, align 8
  %40 = getelementptr inbounds nuw %struct.conversation, ptr %39, i32 0, i32 5
  %41 = load i32, ptr %40, align 8
  %42 = icmp ugt i32 %38, %41
  br i1 %42, label %43, label %47

43:                                               ; preds = %37
  %44 = load i32, ptr %13, align 4
  %45 = load ptr, ptr %15, align 8
  %46 = getelementptr inbounds nuw %struct.conversation, ptr %45, i32 0, i32 5
  store i32 %44, ptr %46, align 8
  br label %47

47:                                               ; preds = %43, %37
  %48 = load ptr, ptr %15, align 8
  %49 = load i32, ptr @proto_lbtrm, align 4
  %50 = call ptr @conversation_get_proto_data(ptr noundef %48, i32 noundef %49)
  store ptr %50, ptr %16, align 8
  %51 = load ptr, ptr %16, align 8
  %52 = icmp eq ptr %51, null
  br i1 %52, label %53, label %59

53:                                               ; preds = %47
  %54 = call ptr @wmem_file_scope()
  %55 = call noalias ptr @wmem_tree_new(ptr noundef %54)
  store ptr %55, ptr %16, align 8
  %56 = load ptr, ptr %15, align 8
  %57 = load i32, ptr @proto_lbtrm, align 4
  %58 = load ptr, ptr %16, align 8
  call void @conversation_add_proto_data(ptr noundef %56, i32 noundef %57, ptr noundef %58)
  br label %59

59:                                               ; preds = %53, %47
  %60 = load ptr, ptr %16, align 8
  %61 = load i32, ptr %10, align 4
  %62 = call ptr @wmem_tree_lookup32(ptr noundef %60, i32 noundef %61)
  store ptr %62, ptr %14, align 8
  %63 = load ptr, ptr %14, align 8
  %64 = icmp ne ptr %63, null
  br i1 %64, label %65, label %67

65:                                               ; preds = %59
  %66 = load ptr, ptr %14, align 8
  store ptr %66, ptr %7, align 8
  store i32 1, ptr %17, align 4
  br label %125

67:                                               ; preds = %59
  %68 = call ptr @wmem_file_scope()
  %69 = call noalias ptr @wmem_alloc(ptr noundef %68, i64 noundef 144) #10
  store ptr %69, ptr %14, align 8
  %70 = call ptr @wmem_file_scope()
  %71 = load ptr, ptr %14, align 8
  %72 = getelementptr inbounds nuw %struct.lbtrm_transport_t, ptr %71, i32 0, i32 0
  %73 = load ptr, ptr %8, align 8
  call void @copy_address_wmem(ptr noundef %70, ptr noundef %72, ptr noundef %73)
  %74 = load i16, ptr %9, align 2
  %75 = load ptr, ptr %14, align 8
  %76 = getelementptr inbounds nuw %struct.lbtrm_transport_t, ptr %75, i32 0, i32 1
  store i16 %74, ptr %76, align 8
  %77 = load i32, ptr %10, align 4
  %78 = load ptr, ptr %14, align 8
  %79 = getelementptr inbounds nuw %struct.lbtrm_transport_t, ptr %78, i32 0, i32 2
  store i32 %77, ptr %79, align 4
  %80 = call ptr @wmem_file_scope()
  %81 = load ptr, ptr %14, align 8
  %82 = getelementptr inbounds nuw %struct.lbtrm_transport_t, ptr %81, i32 0, i32 3
  %83 = load ptr, ptr %11, align 8
  call void @copy_address_wmem(ptr noundef %80, ptr noundef %82, ptr noundef %83)
  %84 = load i16, ptr %12, align 2
  %85 = load ptr, ptr %14, align 8
  %86 = getelementptr inbounds nuw %struct.lbtrm_transport_t, ptr %85, i32 0, i32 4
  store i16 %84, ptr %86, align 8
  %87 = call i64 @lbm_channel_assign(i8 noundef zeroext 2)
  %88 = load ptr, ptr %14, align 8
  %89 = getelementptr inbounds nuw %struct.lbtrm_transport_t, ptr %88, i32 0, i32 5
  store i64 %87, ptr %89, align 8
  %90 = call ptr @wmem_file_scope()
  %91 = call noalias ptr @wmem_tree_new(ptr noundef %90)
  %92 = load ptr, ptr %14, align 8
  %93 = getelementptr inbounds nuw %struct.lbtrm_transport_t, ptr %92, i32 0, i32 6
  store ptr %91, ptr %93, align 8
  %94 = load ptr, ptr %14, align 8
  %95 = getelementptr inbounds nuw %struct.lbtrm_transport_t, ptr %94, i32 0, i32 7
  store ptr null, ptr %95, align 8
  %96 = load ptr, ptr %14, align 8
  %97 = getelementptr inbounds nuw %struct.lbtrm_transport_t, ptr %96, i32 0, i32 8
  store ptr null, ptr %97, align 8
  %98 = load ptr, ptr %14, align 8
  %99 = getelementptr inbounds nuw %struct.lbtrm_transport_t, ptr %98, i32 0, i32 9
  store ptr null, ptr %99, align 8
  %100 = load ptr, ptr %14, align 8
  %101 = getelementptr inbounds nuw %struct.lbtrm_transport_t, ptr %100, i32 0, i32 10
  store ptr null, ptr %101, align 8
  %102 = load ptr, ptr %14, align 8
  %103 = getelementptr inbounds nuw %struct.lbtrm_transport_t, ptr %102, i32 0, i32 11
  store ptr null, ptr %103, align 8
  %104 = call ptr @wmem_file_scope()
  %105 = call noalias ptr @wmem_tree_new(ptr noundef %104)
  %106 = load ptr, ptr %14, align 8
  %107 = getelementptr inbounds nuw %struct.lbtrm_transport_t, ptr %106, i32 0, i32 12
  store ptr %105, ptr %107, align 8
  %108 = call ptr @wmem_file_scope()
  %109 = call noalias ptr @wmem_tree_new(ptr noundef %108)
  %110 = load ptr, ptr %14, align 8
  %111 = getelementptr inbounds nuw %struct.lbtrm_transport_t, ptr %110, i32 0, i32 13
  store ptr %109, ptr %111, align 8
  %112 = load ptr, ptr %14, align 8
  %113 = getelementptr inbounds nuw %struct.lbtrm_transport_t, ptr %112, i32 0, i32 14
  store i32 0, ptr %113, align 8
  %114 = load ptr, ptr %14, align 8
  %115 = getelementptr inbounds nuw %struct.lbtrm_transport_t, ptr %114, i32 0, i32 15
  store i32 0, ptr %115, align 4
  %116 = load ptr, ptr %16, align 8
  %117 = load i32, ptr %10, align 4
  %118 = load ptr, ptr %14, align 8
  call void @wmem_tree_insert32(ptr noundef %116, i32 noundef %117, ptr noundef %118)
  %119 = load ptr, ptr %8, align 8
  %120 = load i16, ptr %9, align 2
  %121 = load i32, ptr %10, align 4
  %122 = load i32, ptr %13, align 4
  %123 = load ptr, ptr %14, align 8
  call void @lbtrm_transport_unicast_add(ptr noundef %119, i16 noundef zeroext %120, i32 noundef %121, i32 noundef %122, ptr noundef %123)
  %124 = load ptr, ptr %14, align 8
  store ptr %124, ptr %7, align 8
  store i32 1, ptr %17, align 4
  br label %125

125:                                              ; preds = %67, %65
  call void @llvm.lifetime.end.p0(i64 8, ptr %16) #9
  call void @llvm.lifetime.end.p0(i64 8, ptr %15) #9
  call void @llvm.lifetime.end.p0(i64 8, ptr %14) #9
  %126 = load ptr, ptr %7, align 8
  ret ptr %126
}