; Function Attrs: null_pointer_is_valid sspstrong uwtable
define hidden ptr @lbtrm_transport_add(ptr noundef %0, i16 noundef zeroext %1, i32 noundef %2, ptr noundef %3, i16 noundef zeroext %4, i32 noundef %5) local_unnamed_addr #0 {
  %7 = zext i16 %1 to i32
  %8 = zext i16 %4 to i32
  %9 = tail call ptr @find_conversation(i32 noundef %5, ptr noundef %0, ptr noundef %3, i32 noundef 3, i32 noundef %7, i32 noundef %8, i32 noundef 0)
  %10 = icmp eq ptr %9, null
  br i1 %10, label %11, label %13

11:                                               ; preds = %6
  %12 = tail call ptr @conversation_new(i32 noundef %5, ptr noundef %0, ptr noundef %3, i32 noundef 3, i32 noundef %7, i32 noundef %8, i32 noundef 0)
  br label %13

13:                                               ; preds = %11, %6
  %.053 = phi ptr [ %12, %11 ], [ %9, %6 ]
  %14 = getelementptr inbounds nuw i8, ptr %.053, i64 32
  %15 = load i32, ptr %14, align 8
  %16 = icmp ugt i32 %5, %15
  br i1 %16, label %17, label %18

17:                                               ; preds = %13
  store i32 %5, ptr %14, align 8
  br label %18

18:                                               ; preds = %17, %13
  %19 = load i32, ptr @proto_lbtrm, align 4
  %20 = tail call ptr @conversation_get_proto_data(ptr noundef %.053, i32 noundef %19)
  %21 = icmp eq ptr %20, null
  br i1 %21, label %22, label %26

22:                                               ; preds = %18
  %23 = tail call ptr @wmem_file_scope()
  %24 = tail call noalias ptr @wmem_tree_new(ptr noundef %23)
  %25 = load i32, ptr @proto_lbtrm, align 4
  tail call void @conversation_add_proto_data(ptr noundef %.053, i32 noundef %25, ptr noundef %24)
  br label %26

26:                                               ; preds = %22, %18
  %.0 = phi ptr [ %24, %22 ], [ %20, %18 ]
  %27 = tail call ptr @wmem_tree_lookup32(ptr noundef %.0, i32 noundef %2)
  %.not = icmp eq ptr %27, null
  br i1 %.not, label %28, label %lbtrm_transport_unicast_add.exit

28:                                               ; preds = %26
  %29 = tail call ptr @wmem_file_scope()
  %30 = tail call noalias dereferenceable_or_null(144) ptr @wmem_alloc(ptr noundef %29, i64 noundef 144) #8
  %31 = tail call ptr @wmem_file_scope()
  %32 = load i32, ptr %0, align 8
  %33 = getelementptr inbounds nuw i8, ptr %0, i64 4
  %34 = load i32, ptr %33, align 4
  %35 = getelementptr inbounds nuw i8, ptr %0, i64 8
  %36 = load ptr, ptr %35, align 8
  tail call void @llvm.memset.p0.i64(ptr noundef align 8 dereferenceable(24) %30, i8 0, i64 24, i1 false)
  store i32 %32, ptr %30, align 8
  %37 = icmp eq i32 %34, 0
  br i1 %37, label %copy_address_wmem.exit, label %38

38:                                               ; preds = %28
  %39 = sext i32 %34 to i64
  %40 = tail call ptr @wmem_memdup(ptr noundef %31, ptr noundef %36, i64 noundef %39) #9
  %41 = getelementptr inbounds nuw i8, ptr %30, i64 16
  store ptr %40, ptr %41, align 8
  %42 = getelementptr inbounds nuw i8, ptr %30, i64 8
  store ptr %40, ptr %42, align 8
  %43 = getelementptr inbounds nuw i8, ptr %30, i64 4
  store i32 %34, ptr %43, align 4
  br label %copy_address_wmem.exit

copy_address_wmem.exit:                           ; preds = %28, %38
  %44 = getelementptr inbounds nuw i8, ptr %30, i64 24
  store i16 %1, ptr %44, align 8
  %45 = getelementptr inbounds nuw i8, ptr %30, i64 28
  store i32 %2, ptr %45, align 4
  %46 = tail call ptr @wmem_file_scope()
  %47 = getelementptr inbounds nuw i8, ptr %30, i64 32
  %48 = load i32, ptr %3, align 8
  %49 = getelementptr inbounds nuw i8, ptr %3, i64 4
  %50 = load i32, ptr %49, align 4
  %51 = getelementptr inbounds nuw i8, ptr %3, i64 8
  %52 = load ptr, ptr %51, align 8
  tail call void @llvm.memset.p0.i64(ptr noundef nonnull align 8 dereferenceable(24) %47, i8 0, i64 24, i1 false)
  store i32 %48, ptr %47, align 8
  %53 = icmp eq i32 %50, 0
  br i1 %53, label %copy_address_wmem.exit59, label %54

54:                                               ; preds = %copy_address_wmem.exit
  %55 = sext i32 %50 to i64
  %56 = tail call ptr @wmem_memdup(ptr noundef %46, ptr noundef %52, i64 noundef %55) #9
  %57 = getelementptr inbounds nuw i8, ptr %30, i64 48
  store ptr %56, ptr %57, align 8
  %58 = getelementptr inbounds nuw i8, ptr %30, i64 40
  store ptr %56, ptr %58, align 8
  %59 = getelementptr inbounds nuw i8, ptr %30, i64 36
  store i32 %50, ptr %59, align 4
  br label %copy_address_wmem.exit59

copy_address_wmem.exit59:                         ; preds = %copy_address_wmem.exit, %54
  %60 = getelementptr inbounds nuw i8, ptr %30, i64 56
  store i16 %4, ptr %60, align 8
  %61 = tail call i64 @lbm_channel_assign(i8 noundef zeroext 2)
  %62 = getelementptr inbounds nuw i8, ptr %30, i64 64
  store i64 %61, ptr %62, align 8
  %63 = tail call ptr @wmem_file_scope()
  %64 = tail call noalias ptr @wmem_tree_new(ptr noundef %63)
  %65 = getelementptr inbounds nuw i8, ptr %30, i64 72
  store ptr %64, ptr %65, align 8
  %66 = getelementptr inbounds nuw i8, ptr %30, i64 80
  tail call void @llvm.memset.p0.i64(ptr noundef nonnull align 8 dereferenceable(40) %66, i8 0, i64 40, i1 false)
  %67 = tail call ptr @wmem_file_scope()
  %68 = tail call noalias ptr @wmem_tree_new(ptr noundef %67)
  %69 = getelementptr inbounds nuw i8, ptr %30, i64 120
  store ptr %68, ptr %69, align 8
  %70 = tail call ptr @wmem_file_scope()
  %71 = tail call noalias ptr @wmem_tree_new(ptr noundef %70)
  %72 = getelementptr inbounds nuw i8, ptr %30, i64 128
  store ptr %71, ptr %72, align 8
  %73 = getelementptr inbounds nuw i8, ptr %30, i64 136
  store i32 0, ptr %73, align 8
  %74 = getelementptr inbounds nuw i8, ptr %30, i64 140
  store i32 0, ptr %74, align 4
  tail call void @wmem_tree_insert32(ptr noundef %.0, i32 noundef %2, ptr noundef %30)
  %75 = tail call ptr @find_conversation(i32 noundef %5, ptr noundef %0, ptr noundef nonnull @lbtrm_null_address, i32 noundef 3, i32 noundef %7, i32 noundef 0, i32 noundef 0)
  %76 = icmp eq ptr %75, null
  br i1 %76, label %77, label %79

77:                                               ; preds = %copy_address_wmem.exit59
  %78 = tail call ptr @conversation_new(i32 noundef %5, ptr noundef %0, ptr noundef nonnull @lbtrm_null_address, i32 noundef 3, i32 noundef %7, i32 noundef 0, i32 noundef 0)
  br label %79

79:                                               ; preds = %77, %copy_address_wmem.exit59
  %.016.i = phi ptr [ %78, %77 ], [ %75, %copy_address_wmem.exit59 ]
  %80 = load i32, ptr @proto_lbtrm, align 4
  %81 = tail call ptr @conversation_get_proto_data(ptr noundef %.016.i, i32 noundef %80)
  %82 = icmp eq ptr %81, null
  br i1 %82, label %83, label %87

83:                                               ; preds = %79
  %84 = tail call ptr @wmem_file_scope()
  %85 = tail call noalias ptr @wmem_tree_new(ptr noundef %84)
  %86 = load i32, ptr @proto_lbtrm, align 4
  tail call void @conversation_add_proto_data(ptr noundef %.016.i, i32 noundef %86, ptr noundef %85)
  br label %87

87:                                               ; preds = %83, %79
  %.0.i = phi ptr [ %85, %83 ], [ %81, %79 ]
  %88 = tail call ptr @wmem_tree_lookup32(ptr noundef %.0.i, i32 noundef %2)
  %89 = icmp eq ptr %88, null
  br i1 %89, label %90, label %lbtrm_transport_unicast_add.exit

90:                                               ; preds = %87
  tail call void @wmem_tree_insert32(ptr noundef %.0.i, i32 noundef %2, ptr noundef %30)
  br label %lbtrm_transport_unicast_add.exit

lbtrm_transport_unicast_add.exit:                 ; preds = %90, %87, %26
  %.054 = phi ptr [ %27, %26 ], [ %30, %87 ], [ %30, %90 ]
  ret ptr %.054
}